; Function Attrs: nounwind uwtable
define internal fastcc ptr @find_first_constant_definition(ptr noundef readnone captures(address) %0, ptr noundef readonly captures(none) %1, i64 noundef range(i64 0, 4294967295) %2, ptr noundef %3, ptr noundef readnone captures(address, ret: address, provenance) %4) unnamed_addr #2 {
  %6 = icmp eq ptr %4, %0
  %7 = icmp ne i64 %2, 0
  %or.cond = and i1 %6, %7
  br i1 %or.cond, label %.lr.ph, label %.loopexit

.lr.ph:                                           ; preds = %5, %16
  %.016 = phi i64 [ %17, %16 ], [ 0, %5 ]
  %8 = getelementptr inbounds nuw ptr, ptr %1, i64 %.016
  %9 = load ptr, ptr %8, align 8, !tbaa !88
  %.not = icmp eq ptr %9, null
  br i1 %.not, label %16, label %10

10:                                               ; preds = %.lr.ph
  %11 = getelementptr inbounds nuw i8, ptr %9, i64 176
  %12 = tail call ptr @zend_hash_find(ptr noundef nonnull %11, ptr noundef %3) #17
  %.not15 = icmp eq ptr %12, null
  br i1 %.not15, label %16, label %13

13:                                               ; preds = %10
  %14 = getelementptr inbounds nuw ptr, ptr %1, i64 %.016
  %15 = load ptr, ptr %14, align 8, !tbaa !88
  br label %.loopexit

16:                                               ; preds = %.lr.ph, %10
  %17 = add nuw nsw i64 %.016, 1
  %exitcond.not = icmp eq i64 %17, %2
  br i1 %exitcond.not, label %.loopexit, label %.lr.ph

.loopexit:                                        ; preds = %16, %5, %13
  %.013 = phi ptr [ %15, %13 ], [ %4, %5 ], [ %4, %16 ]
  ret ptr %.013
}